; Function Attrs: mustprogress nofree norecurse nosync nounwind willreturn memory(argmem: readwrite) uwtable
define dso_local void @_ZN4Luau8Position5shiftERKS0_S2_S2_(ptr nocapture noundef nonnull align 4 dereferenceable(8) %0, ptr nocapture noundef nonnull readonly align 4 dereferenceable(8) %1, ptr nocapture noundef nonnull readonly align 4 dereferenceable(8) %2, ptr nocapture noundef nonnull readonly align 4 dereferenceable(8) %3) local_unnamed_addr #1 align 2 {
  %5 = getelementptr inbounds i8, ptr %0, i64 4
  %6 = load i32, ptr %5, align 4
  %7 = getelementptr inbounds i8, ptr %1, i64 4
  %8 = load i32, ptr %7, align 4
  %9 = icmp eq i32 %6, %8
  %10 = load i32, ptr %0, align 4
  %11 = load i32, ptr %1, align 4
  %12 = icmp eq i32 %10, %11
  %13 = select i1 %9, i1 %12, i1 false
  br i1 %13, label %_ZNK4Luau8PositiongeERKS0_.exit.thread, label %_ZNK4Luau8PositiongeERKS0_.exit

_ZNK4Luau8PositiongeERKS0_.exit:                  ; preds = %4
  %14 = icmp ugt i32 %6, %8
  %15 = icmp ugt i32 %10, %11
  %.0.i.i = select i1 %12, i1 %14, i1 %15
  br i1 %.0.i.i, label %_ZNK4Luau8PositiongeERKS0_.exit.thread, label %29

_ZNK4Luau8PositiongeERKS0_.exit.thread:           ; preds = %4, %_ZNK4Luau8PositiongeERKS0_.exit
  %16 = load i32, ptr %2, align 4
  %17 = icmp ugt i32 %10, %16
  %18 = load i32, ptr %3, align 4
  br i1 %17, label %19, label %22

19:                                               ; preds = %_ZNK4Luau8PositiongeERKS0_.exit.thread
  %20 = sub i32 %10, %16
  %21 = add i32 %20, %18
  store i32 %21, ptr %0, align 4
  br label %29

22:                                               ; preds = %_ZNK4Luau8PositiongeERKS0_.exit.thread
  store i32 %18, ptr %0, align 4
  %23 = getelementptr inbounds i8, ptr %3, i64 4
  %24 = load i32, ptr %23, align 4
  %25 = getelementptr inbounds i8, ptr %2, i64 4
  %26 = load i32, ptr %25, align 4
  %27 = add i32 %24, %6
  %28 = sub i32 %27, %26
  store i32 %28, ptr %5, align 4
  br label %29

29:                                               ; preds = %19, %22, %_ZNK4Luau8PositiongeERKS0_.exit
  ret void
}